target datalayout = "e-m:e-p270:32:32-p271:32:32-p272:64:64-i64:64-i128:128-f80:128-n8:16:32:64-S128"
target triple = "x86_64-pc-linux-gnu"

%struct._packet_info = type { ptr, ptr, i32, i32, %struct.nstime_t, %struct.nstime_t, %struct.nstime_t, i8, ptr, ptr, ptr, ptr, %struct._address, %struct._address, %struct._address, %struct._address, %struct._address, %struct._address, i32, ptr, i8, [3 x i8], %struct.anon, i32, i32, i32, i32, ptr, i8, ptr, ptr, i16, i16, i32, i32, i16, i32, i32, ptr, ptr, ptr, i8, i8, i16, i16, i16, i32, i16, i16, ptr, ptr, ptr, ptr, ptr, i32, i32 }
%struct.nstime_t = type { i64, i32 }
%struct._address = type { i32, i32, ptr, ptr }
%struct.anon = type { i8, [3 x i8] }

@hf_find_opcode = internal global i32 0, align 4
@hf_find_target_hardware_identifier = internal global i32 0, align 4
@hf_find_target_type_name = internal global i32 0, align 4
@hf_find_target_position = internal global i32 0, align 4
@hf_find_literal_name = internal global i32 0, align 4
@hf_find_manufacturer_code = internal global i32 0, align 4
@hf_find_packet_terminator = internal global i32 0, align 4
@ett_find = internal global i32 0, align 4
@.str.82 = private unnamed_addr constant [5 x i8] c"FIND\00", align 1
@proto_find = internal global i32 0, align 4
@find_opcode_vals = internal constant [3 x { i32, [4 x i8], ptr }] [{ i32, [4 x i8], ptr } { i32 1, [4 x i8] zeroinitializer, ptr @.str.98 }, { i32, [4 x i8], ptr } { i32 2, [4 x i8] zeroinitializer, ptr @.str.99 }, { i32, [4 x i8], ptr } zeroinitializer], align 16
@.str.101 = private unnamed_addr constant [5 x i8] c", %s\00", align 1
@.str.102 = private unnamed_addr constant [17 x i8] c"Unknown (0x%04x)\00", align 1

; Function Attrs: null_pointer_is_valid sspstrong uwtable
define internal i32 @dissect_find(ptr noundef %0, ptr noundef %1, ptr noundef %2, ptr noundef %3) #0 {
  %5 = alloca ptr, align 8
  %6 = alloca ptr, align 8
  %7 = alloca ptr, align 8
  %8 = alloca ptr, align 8
  %9 = alloca ptr, align 8
  %10 = alloca ptr, align 8
  %11 = alloca ptr, align 8
  %12 = alloca i32, align 4
  store ptr %0, ptr %5, align 8
  store ptr %1, ptr %6, align 8
  store ptr %2, ptr %7, align 8
  store ptr %3, ptr %8, align 8
  %13 = load ptr, ptr %6, align 8
  %14 = getelementptr inbounds nuw %struct._packet_info, ptr %13, i32 0, i32 1
  %15 = load ptr, ptr %14, align 8
  call void @col_set_str(ptr noundef %15, i32 noundef 35, ptr noundef @.str.82)
  call void @llvm.lifetime.start.p0(i64 8, ptr %9) #6
  %16 = load ptr, ptr %7, align 8
  %17 = load i32, ptr @proto_find, align 4
  %18 = load ptr, ptr %5, align 8
  %19 = call ptr @proto_tree_add_item(ptr noundef %16, i32 noundef %17, ptr noundef %18, i32 noundef 0, i32 noundef -1, i32 noundef 0)
  store ptr %19, ptr %9, align 8
  call void @llvm.lifetime.start.p0(i64 8, ptr %10) #6
  %20 = load ptr, ptr %9, align 8
  %21 = load i32, ptr @ett_find, align 4
  %22 = call ptr @proto_item_add_subtree(ptr noundef %20, i32 noundef %21)
  store ptr %22, ptr %10, align 8
  call void @llvm.lifetime.start.p0(i64 8, ptr %11) #6
  %23 = load ptr, ptr %6, align 8
  %24 = getelementptr inbounds nuw %struct._packet_info, ptr %23, i32 0, i32 51
  %25 = load ptr, ptr %24, align 8
  %26 = load ptr, ptr %10, align 8
  %27 = load ptr, ptr %5, align 8
  %28 = call ptr @ptvcursor_new(ptr noundef %25, ptr noundef %26, ptr noundef %27, i32 noundef 0)
  store ptr %28, ptr %11, align 8
  call void @llvm.lifetime.start.p0(i64 4, ptr %12) #6
  %29 = load ptr, ptr %11, align 8
  %30 = load i32, ptr @hf_find_opcode, align 4
  %31 = call ptr @ptvcursor_add_ret_uint(ptr noundef %29, i32 noundef %30, i32 noundef 2, i32 noundef 0, ptr noundef %12)
  %32 = load ptr, ptr %6, align 8
  %33 = getelementptr inbounds nuw %struct._packet_info, ptr %32, i32 0, i32 1
  %34 = load ptr, ptr %33, align 8
  %35 = load i32, ptr %12, align 4
  %36 = call ptr @val_to_str(i32 noundef %35, ptr noundef @find_opcode_vals, ptr noundef @.str.102)
  call void (ptr, i32, ptr, ...) @col_append_fstr(ptr noundef %34, i32 noundef 25, ptr noundef @.str.101, ptr noundef %36)
  %37 = load i32, ptr %12, align 4
  %38 = icmp eq i32 %37, 2
  br i1 %38, label %39, label %55

39:                                               ; preds = %4
  %40 = load ptr, ptr %11, align 8
  %41 = load i32, ptr @hf_find_target_hardware_identifier, align 4
  %42 = call ptr @ptvcursor_add(ptr noundef %40, i32 noundef %41, i32 noundef -1, i32 noundef 0)
  %43 = load ptr, ptr %11, align 8
  %44 = load i32, ptr @hf_find_target_type_name, align 4
  %45 = call ptr @ptvcursor_add(ptr noundef %43, i32 noundef %44, i32 noundef -1, i32 noundef 0)
  %46 = load ptr, ptr %11, align 8
  %47 = load i32, ptr @hf_find_target_position, align 4
  %48 = call ptr @ptvcursor_add(ptr noundef %46, i32 noundef %47, i32 noundef -1, i32 noundef 0)
  %49 = load ptr, ptr %11, align 8
  %50 = load i32, ptr @hf_find_literal_name, align 4
  %51 = call ptr @ptvcursor_add(ptr noundef %49, i32 noundef %50, i32 noundef -1, i32 noundef 0)
  %52 = load ptr, ptr %11, align 8
  %53 = load i32, ptr @hf_find_manufacturer_code, align 4
  %54 = call ptr @ptvcursor_add(ptr noundef %52, i32 noundef %53, i32 noundef -1, i32 noundef 0)
  br label %57

55:                                               ; preds = %4
  %56 = load ptr, ptr %11, align 8
  call void @ptvcursor_advance(ptr noundef %56, i32 noundef 1)
  br label %57

57:                                               ; preds = %55, %39
  %58 = load ptr, ptr %11, align 8
  %59 = load i32, ptr @hf_find_packet_terminator, align 4
  %60 = call ptr @ptvcursor_add(ptr noundef %58, i32 noundef %59, i32 noundef 1, i32 noundef 0)
  %61 = load ptr, ptr %11, align 8
  call void @ptvcursor_free(ptr noundef %61)
  %62 = load ptr, ptr %5, align 8
  %63 = call i32 @tvb_captured_length(ptr noundef %62)
  call void @llvm.lifetime.end.p0(i64 4, ptr %12) #6
  call void @llvm.lifetime.end.p0(i64 8, ptr %11) #6
  call void @llvm.lifetime.end.p0(i64 8, ptr %10) #6
  call void @llvm.lifetime.end.p0(i64 8, ptr %9) #6
  ret i32 %63
}