; Function Attrs: null_pointer_is_valid sspstrong uwtable
define internal i32 @dissect_find(ptr noundef %0, ptr noundef readonly captures(none) %1, ptr noundef %2, ptr readnone captures(none) %3) #0 {
  %5 = alloca i32, align 4
  %6 = getelementptr inbounds nuw i8, ptr %1, i64 8
  %7 = load ptr, ptr %6, align 8
  tail call void @col_set_str(ptr noundef %7, i32 noundef 35, ptr noundef nonnull @.str.82)
  %8 = load i32, ptr @proto_find, align 4
  %9 = tail call ptr @proto_tree_add_item(ptr noundef %2, i32 noundef %8, ptr noundef %0, i32 noundef 0, i32 noundef -1, i32 noundef 0)
  %10 = load i32, ptr @ett_find, align 4
  %11 = tail call ptr @proto_item_add_subtree(ptr noundef %9, i32 noundef %10)
  %12 = getelementptr inbounds nuw i8, ptr %1, i64 408
  %13 = load ptr, ptr %12, align 8
  %14 = tail call ptr @ptvcursor_new(ptr noundef %13, ptr noundef %11, ptr noundef %0, i32 noundef 0)
  call void @llvm.lifetime.start.p0(i64 4, ptr nonnull %5) #3
  %15 = load i32, ptr @hf_find_opcode, align 4
  %16 = call ptr @ptvcursor_add_ret_uint(ptr noundef %14, i32 noundef %15, i32 noundef 2, i32 noundef 0, ptr noundef nonnull %5)
  %17 = load ptr, ptr %6, align 8
  %18 = load i32, ptr %5, align 4
  %19 = call ptr @val_to_str(i32 noundef %18, ptr noundef nonnull @find_opcode_vals, ptr noundef nonnull @.str.102)
  call void (ptr, i32, ptr, ...) @col_append_fstr(ptr noundef %17, i32 noundef 25, ptr noundef nonnull @.str.101, ptr noundef %19)
  %20 = load i32, ptr %5, align 4
  %21 = icmp eq i32 %20, 2
  br i1 %21, label %22, label %33

22:                                               ; preds = %4
  %23 = load i32, ptr @hf_find_target_hardware_identifier, align 4
  %24 = call ptr @ptvcursor_add(ptr noundef %14, i32 noundef %23, i32 noundef -1, i32 noundef 0)
  %25 = load i32, ptr @hf_find_target_type_name, align 4
  %26 = call ptr @ptvcursor_add(ptr noundef %14, i32 noundef %25, i32 noundef -1, i32 noundef 0)
  %27 = load i32, ptr @hf_find_target_position, align 4
  %28 = call ptr @ptvcursor_add(ptr noundef %14, i32 noundef %27, i32 noundef -1, i32 noundef 0)
  %29 = load i32, ptr @hf_find_literal_name, align 4
  %30 = call ptr @ptvcursor_add(ptr noundef %14, i32 noundef %29, i32 noundef -1, i32 noundef 0)
  %31 = load i32, ptr @hf_find_manufacturer_code, align 4
  %32 = call ptr @ptvcursor_add(ptr noundef %14, i32 noundef %31, i32 noundef -1, i32 noundef 0)
  br label %34

33:                                               ; preds = %4
  call void @ptvcursor_advance(ptr noundef %14, i32 noundef 1)
  br label %34

34:                                               ; preds = %33, %22
  %35 = load i32, ptr @hf_find_packet_terminator, align 4
  %36 = call ptr @ptvcursor_add(ptr noundef %14, i32 noundef %35, i32 noundef 1, i32 noundef 0)
  call void @ptvcursor_free(ptr noundef %14)
  %37 = call i32 @tvb_captured_length(ptr noundef %0)
  call void @llvm.lifetime.end.p0(i64 4, ptr nonnull %5) #3
  ret i32 %37
}